target datalayout = "e-m:e-p270:32:32-p271:32:32-p272:64:64-i64:64-i128:128-f80:128-n8:16:32:64-S128"
target triple = "x86_64-unknown-linux-gnu"

%"class.llvh::ms_demangle::ArenaAllocator" = type { ptr }
%"struct.llvh::ms_demangle::Node.base" = type <{ ptr, i32 }>
%"struct.llvh::ms_demangle::ArenaAllocator::AllocatorNode" = type { ptr, i64, i64, ptr }
%"struct.llvh::ms_demangle::NodeArrayNode" = type { %"struct.llvh::ms_demangle::Node.base", ptr, i64 }
%"struct.llvh::ms_demangle::Node" = type <{ ptr, i32, [4 x i8] }>
%struct.NodeList = type { ptr, ptr }

@_ZTVN4llvh11ms_demangle4NodeE = linkonce_odr hidden unnamed_addr constant { [5 x ptr] } { [5 x ptr] [ptr null, ptr null, ptr @_ZN4llvh11ms_demangle4NodeD2Ev, ptr @_ZN4llvh11ms_demangle4NodeD0Ev, ptr @__cxa_pure_virtual] }, comdat, align 8
@_ZTVN4llvh11ms_demangle13NodeArrayNodeE = external unnamed_addr constant { [5 x ptr] }, align 8

; Function Attrs: mustprogress nounwind uwtable
define linkonce_odr hidden void @_ZN4llvh11ms_demangle14ArenaAllocator13AllocatorNodeC2Ev(ptr noundef nonnull align 8 dereferenceable(32) %this) unnamed_addr #0 comdat align 2 {
entry:
  %this.addr = alloca ptr, align 8
  store ptr %this, ptr %this.addr, align 8
  %this1 = load ptr, ptr %this.addr, align 8
  %Buf = getelementptr inbounds %"struct.llvh::ms_demangle::ArenaAllocator::AllocatorNode", ptr %this1, i32 0, i32 0
  store ptr null, ptr %Buf, align 8
  %Used = getelementptr inbounds %"struct.llvh::ms_demangle::ArenaAllocator::AllocatorNode", ptr %this1, i32 0, i32 1
  store i64 0, ptr %Used, align 8
  %Capacity = getelementptr inbounds %"struct.llvh::ms_demangle::ArenaAllocator::AllocatorNode", ptr %this1, i32 0, i32 2
  store i64 0, ptr %Capacity, align 8
  %Next = getelementptr inbounds %"struct.llvh::ms_demangle::ArenaAllocator::AllocatorNode", ptr %this1, i32 0, i32 3
  store ptr null, ptr %Next, align 8
  ret void
}

; Function Attrs: mustprogress nounwind uwtable
define linkonce_odr hidden void @_ZN4llvh11ms_demangle4NodeC2ENS0_8NodeKindE(ptr noundef nonnull align 8 dereferenceable(12) %this, i32 noundef %K) unnamed_addr #0 comdat align 2 {
entry:
  %this.addr = alloca ptr, align 8
  %K.addr = alloca i32, align 4
  store ptr %this, ptr %this.addr, align 8
  store i32 %K, ptr %K.addr, align 4
  %this1 = load ptr, ptr %this.addr, align 8
  store ptr getelementptr inbounds ({ [5 x ptr] }, ptr @_ZTVN4llvh11ms_demangle4NodeE, i32 0, i32 0, i32 2), ptr %this1, align 8
  %Kind = getelementptr inbounds %"struct.llvh::ms_demangle::Node", ptr %this1, i32 0, i32 1
  %0 = load i32, ptr %K.addr, align 4
  store i32 %0, ptr %Kind, align 8
  ret void
}

; Function Attrs: mustprogress nounwind uwtable
define linkonce_odr hidden void @_ZN4llvh11ms_demangle14ArenaAllocator7addNodeEm(ptr noundef nonnull align 8 dereferenceable(8) %this, i64 noundef %Capacity) #0 comdat align 2 {
entry:
  %this.addr = alloca ptr, align 8
  %Capacity.addr = alloca i64, align 8
  %NewHead = alloca ptr, align 8
  store ptr %this, ptr %this.addr, align 8
  store i64 %Capacity, ptr %Capacity.addr, align 8
  %this1 = load ptr, ptr %this.addr, align 8
  %call = call noalias noundef nonnull ptr @_Znwm(i64 noundef 32) #18
  call void @_ZN4llvh11ms_demangle14ArenaAllocator13AllocatorNodeC2Ev(ptr noundef nonnull align 8 dereferenceable(32) %call) #13
  store ptr %call, ptr %NewHead, align 8
  %0 = load i64, ptr %Capacity.addr, align 8
  %call2 = call noalias noundef nonnull ptr @_Znam(i64 noundef %0) #18
  %1 = load ptr, ptr %NewHead, align 8
  %Buf = getelementptr inbounds %"struct.llvh::ms_demangle::ArenaAllocator::AllocatorNode", ptr %1, i32 0, i32 0
  store ptr %call2, ptr %Buf, align 8
  %Head = getelementptr inbounds %"class.llvh::ms_demangle::ArenaAllocator", ptr %this1, i32 0, i32 0
  %2 = load ptr, ptr %Head, align 8
  %3 = load ptr, ptr %NewHead, align 8
  %Next = getelementptr inbounds %"struct.llvh::ms_demangle::ArenaAllocator::AllocatorNode", ptr %3, i32 0, i32 3
  store ptr %2, ptr %Next, align 8
  %4 = load i64, ptr %Capacity.addr, align 8
  %5 = load ptr, ptr %NewHead, align 8
  %Capacity3 = getelementptr inbounds %"struct.llvh::ms_demangle::ArenaAllocator::AllocatorNode", ptr %5, i32 0, i32 2
  store i64 %4, ptr %Capacity3, align 8
  %6 = load ptr, ptr %NewHead, align 8
  %Head4 = getelementptr inbounds %"class.llvh::ms_demangle::ArenaAllocator", ptr %this1, i32 0, i32 0
  store ptr %6, ptr %Head4, align 8
  %7 = load ptr, ptr %NewHead, align 8
  %Used = getelementptr inbounds %"struct.llvh::ms_demangle::ArenaAllocator::AllocatorNode", ptr %7, i32 0, i32 1
  store i64 0, ptr %Used, align 8
  ret void
}

; Function Attrs: mustprogress nounwind uwtable
define linkonce_odr hidden void @_ZN4llvh11ms_demangle13NodeArrayNodeC2Ev(ptr noundef nonnull align 8 dereferenceable(32) %this) unnamed_addr #0 comdat align 2 {
entry:
  %this.addr = alloca ptr, align 8
  store ptr %this, ptr %this.addr, align 8
  %this1 = load ptr, ptr %this.addr, align 8
  call void @_ZN4llvh11ms_demangle4NodeC2ENS0_8NodeKindE(ptr noundef nonnull align 8 dereferenceable(12) %this1, i32 noundef 19)
  store ptr getelementptr inbounds ({ [5 x ptr] }, ptr @_ZTVN4llvh11ms_demangle13NodeArrayNodeE, i32 0, i32 0, i32 2), ptr %this1, align 8
  %Nodes = getelementptr inbounds %"struct.llvh::ms_demangle::NodeArrayNode", ptr %this1, i32 0, i32 1
  store ptr null, ptr %Nodes, align 8
  %Count = getelementptr inbounds %"struct.llvh::ms_demangle::NodeArrayNode", ptr %this1, i32 0, i32 2
  store i64 0, ptr %Count, align 8
  ret void
}

; Function Attrs: mustprogress nounwind uwtable
define linkonce_odr hidden noundef ptr @_ZN4llvh11ms_demangle14ArenaAllocator10allocArrayIPNS0_4NodeEJEEEPT_m(ptr noundef nonnull align 8 dereferenceable(8) %this, i64 noundef %Count) #0 comdat align 2 {
entry:
  %retval = alloca ptr, align 8
  %this.addr = alloca ptr, align 8
  %Count.addr = alloca i64, align 8
  %Size = alloca i64, align 8
  %P = alloca i64, align 8
  %AlignedP = alloca i64, align 8
  %PP = alloca ptr, align 8
  %Adjustment = alloca i64, align 8
  store ptr %this, ptr %this.addr, align 8
  store i64 %Count, ptr %Count.addr, align 8
  %this1 = load ptr, ptr %this.addr, align 8
  %0 = load i64, ptr %Count.addr, align 8
  %mul = mul i64 %0, 8
  store i64 %mul, ptr %Size, align 8
  %Head = getelementptr inbounds %"class.llvh::ms_demangle::ArenaAllocator", ptr %this1, i32 0, i32 0
  %1 = load ptr, ptr %Head, align 8
  %Buf = getelementptr inbounds %"struct.llvh::ms_demangle::ArenaAllocator::AllocatorNode", ptr %1, i32 0, i32 0
  %2 = load ptr, ptr %Buf, align 8
  %3 = ptrtoint ptr %2 to i64
  %Head2 = getelementptr inbounds %"class.llvh::ms_demangle::ArenaAllocator", ptr %this1, i32 0, i32 0
  %4 = load ptr, ptr %Head2, align 8
  %Used = getelementptr inbounds %"struct.llvh::ms_demangle::ArenaAllocator::AllocatorNode", ptr %4, i32 0, i32 1
  %5 = load i64, ptr %Used, align 8
  %add = add i64 %3, %5
  store i64 %add, ptr %P, align 8
  %6 = load i64, ptr %P, align 8
  %add3 = add i64 %6, 8
  %sub = sub i64 %add3, 1
  %and = and i64 %sub, -8
  store i64 %and, ptr %AlignedP, align 8
  %7 = load i64, ptr %AlignedP, align 8
  %8 = inttoptr i64 %7 to ptr
  store ptr %8, ptr %PP, align 8
  %9 = load i64, ptr %AlignedP, align 8
  %10 = load i64, ptr %P, align 8
  %sub4 = sub i64 %9, %10
  store i64 %sub4, ptr %Adjustment, align 8
  %11 = load i64, ptr %Size, align 8
  %12 = load i64, ptr %Adjustment, align 8
  %add5 = add i64 %11, %12
  %Head6 = getelementptr inbounds %"class.llvh::ms_demangle::ArenaAllocator", ptr %this1, i32 0, i32 0
  %13 = load ptr, ptr %Head6, align 8
  %Used7 = getelementptr inbounds %"struct.llvh::ms_demangle::ArenaAllocator::AllocatorNode", ptr %13, i32 0, i32 1
  %14 = load i64, ptr %Used7, align 8
  %add8 = add i64 %14, %add5
  store i64 %add8, ptr %Used7, align 8
  %Head9 = getelementptr inbounds %"class.llvh::ms_demangle::ArenaAllocator", ptr %this1, i32 0, i32 0
  %15 = load ptr, ptr %Head9, align 8
  %Used10 = getelementptr inbounds %"struct.llvh::ms_demangle::ArenaAllocator::AllocatorNode", ptr %15, i32 0, i32 1
  %16 = load i64, ptr %Used10, align 8
  %Head11 = getelementptr inbounds %"class.llvh::ms_demangle::ArenaAllocator", ptr %this1, i32 0, i32 0
  %17 = load ptr, ptr %Head11, align 8
  %Capacity = getelementptr inbounds %"struct.llvh::ms_demangle::ArenaAllocator::AllocatorNode", ptr %17, i32 0, i32 2
  %18 = load i64, ptr %Capacity, align 8
  %cmp = icmp ult i64 %16, %18
  br i1 %cmp, label %if.then, label %if.end

if.then:                                          ; preds = %entry
  %19 = load i64, ptr %Count.addr, align 8
  %20 = call { i64, i1 } @llvm.umul.with.overflow.i64(i64 %19, i64 8)
  %21 = extractvalue { i64, i1 } %20, 1
  %22 = extractvalue { i64, i1 } %20, 0
  %23 = select i1 %21, i64 -1, i64 %22
  %24 = load ptr, ptr %PP, align 8
  call void @llvm.memset.p0.i64(ptr align 8 %24, i8 0, i64 %23, i1 false)
  store ptr %24, ptr %retval, align 8
  br label %return

if.end:                                           ; preds = %entry
  call void @_ZN4llvh11ms_demangle14ArenaAllocator7addNodeEm(ptr noundef nonnull align 8 dereferenceable(8) %this1, i64 noundef 4096)
  %25 = load i64, ptr %Size, align 8
  %Head12 = getelementptr inbounds %"class.llvh::ms_demangle::ArenaAllocator", ptr %this1, i32 0, i32 0
  %26 = load ptr, ptr %Head12, align 8
  %Used13 = getelementptr inbounds %"struct.llvh::ms_demangle::ArenaAllocator::AllocatorNode", ptr %26, i32 0, i32 1
  store i64 %25, ptr %Used13, align 8
  %27 = load i64, ptr %Count.addr, align 8
  %28 = call { i64, i1 } @llvm.umul.with.overflow.i64(i64 %27, i64 8)
  %29 = extractvalue { i64, i1 } %28, 1
  %30 = extractvalue { i64, i1 } %28, 0
  %31 = select i1 %29, i64 -1, i64 %30
  %Head14 = getelementptr inbounds %"class.llvh::ms_demangle::ArenaAllocator", ptr %this1, i32 0, i32 0
  %32 = load ptr, ptr %Head14, align 8
  %Buf15 = getelementptr inbounds %"struct.llvh::ms_demangle::ArenaAllocator::AllocatorNode", ptr %32, i32 0, i32 0
  %33 = load ptr, ptr %Buf15, align 8
  call void @llvm.memset.p0.i64(ptr align 8 %33, i8 0, i64 %31, i1 false)
  store ptr %33, ptr %retval, align 8
  br label %return

return:                                           ; preds = %if.end, %if.then
  %34 = load ptr, ptr %retval, align 8
  ret ptr %34
}

; Function Attrs: mustprogress nounwind uwtable
define linkonce_odr hidden noundef ptr @_ZN4llvh11ms_demangle14ArenaAllocator5allocINS0_13NodeArrayNodeEJEEEPT_DpOT0_(ptr noundef nonnull align 8 dereferenceable(8) %this) #0 comdat align 2 {
entry:
  %retval = alloca ptr, align 8
  %this.addr = alloca ptr, align 8
  %Size = alloca i64, align 8
  %P = alloca i64, align 8
  %AlignedP = alloca i64, align 8
  %PP = alloca ptr, align 8
  %Adjustment = alloca i64, align 8
  store ptr %this, ptr %this.addr, align 8
  %this1 = load ptr, ptr %this.addr, align 8
  store i64 32, ptr %Size, align 8
  %Head = getelementptr inbounds %"class.llvh::ms_demangle::ArenaAllocator", ptr %this1, i32 0, i32 0
  %0 = load ptr, ptr %Head, align 8
  %Buf = getelementptr inbounds %"struct.llvh::ms_demangle::ArenaAllocator::AllocatorNode", ptr %0, i32 0, i32 0
  %1 = load ptr, ptr %Buf, align 8
  %2 = ptrtoint ptr %1 to i64
  %Head2 = getelementptr inbounds %"class.llvh::ms_demangle::ArenaAllocator", ptr %this1, i32 0, i32 0
  %3 = load ptr, ptr %Head2, align 8
  %Used = getelementptr inbounds %"struct.llvh::ms_demangle::ArenaAllocator::AllocatorNode", ptr %3, i32 0, i32 1
  %4 = load i64, ptr %Used, align 8
  %add = add i64 %2, %4
  store i64 %add, ptr %P, align 8
  %5 = load i64, ptr %P, align 8
  %add3 = add i64 %5, 8
  %sub = sub i64 %add3, 1
  %and = and i64 %sub, -8
  store i64 %and, ptr %AlignedP, align 8
  %6 = load i64, ptr %AlignedP, align 8
  %7 = inttoptr i64 %6 to ptr
  store ptr %7, ptr %PP, align 8
  %8 = load i64, ptr %AlignedP, align 8
  %9 = load i64, ptr %P, align 8
  %sub4 = sub i64 %8, %9
  store i64 %sub4, ptr %Adjustment, align 8
  %10 = load i64, ptr %Size, align 8
  %11 = load i64, ptr %Adjustment, align 8
  %add5 = add i64 %10, %11
  %Head6 = getelementptr inbounds %"class.llvh::ms_demangle::ArenaAllocator", ptr %this1, i32 0, i32 0
  %12 = load ptr, ptr %Head6, align 8
  %Used7 = getelementptr inbounds %"struct.llvh::ms_demangle::ArenaAllocator::AllocatorNode", ptr %12, i32 0, i32 1
  %13 = load i64, ptr %Used7, align 8
  %add8 = add i64 %13, %add5
  store i64 %add8, ptr %Used7, align 8
  %Head9 = getelementptr inbounds %"class.llvh::ms_demangle::ArenaAllocator", ptr %this1, i32 0, i32 0
  %14 = load ptr, ptr %Head9, align 8
  %Used10 = getelementptr inbounds %"struct.llvh::ms_demangle::ArenaAllocator::AllocatorNode", ptr %14, i32 0, i32 1
  %15 = load i64, ptr %Used10, align 8
  %Head11 = getelementptr inbounds %"class.llvh::ms_demangle::ArenaAllocator", ptr %this1, i32 0, i32 0
  %16 = load ptr, ptr %Head11, align 8
  %Capacity = getelementptr inbounds %"struct.llvh::ms_demangle::ArenaAllocator::AllocatorNode", ptr %16, i32 0, i32 2
  %17 = load i64, ptr %Capacity, align 8
  %cmp = icmp ult i64 %15, %17
  br i1 %cmp, label %if.then, label %if.end

if.then:                                          ; preds = %entry
  %18 = load ptr, ptr %PP, align 8
  call void @_ZN4llvh11ms_demangle13NodeArrayNodeC2Ev(ptr noundef nonnull align 8 dereferenceable(32) %18)
  store ptr %18, ptr %retval, align 8
  br label %return

if.end:                                           ; preds = %entry
  call void @_ZN4llvh11ms_demangle14ArenaAllocator7addNodeEm(ptr noundef nonnull align 8 dereferenceable(8) %this1, i64 noundef 4096)
  %19 = load i64, ptr %Size, align 8
  %Head12 = getelementptr inbounds %"class.llvh::ms_demangle::ArenaAllocator", ptr %this1, i32 0, i32 0
  %20 = load ptr, ptr %Head12, align 8
  %Used13 = getelementptr inbounds %"struct.llvh::ms_demangle::ArenaAllocator::AllocatorNode", ptr %20, i32 0, i32 1
  store i64 %19, ptr %Used13, align 8
  %Head14 = getelementptr inbounds %"class.llvh::ms_demangle::ArenaAllocator", ptr %this1, i32 0, i32 0
  %21 = load ptr, ptr %Head14, align 8
  %Buf15 = getelementptr inbounds %"struct.llvh::ms_demangle::ArenaAllocator::AllocatorNode", ptr %21, i32 0, i32 0
  %22 = load ptr, ptr %Buf15, align 8
  call void @_ZN4llvh11ms_demangle13NodeArrayNodeC2Ev(ptr noundef nonnull align 8 dereferenceable(32) %22)
  store ptr %22, ptr %retval, align 8
  br label %return

return:                                           ; preds = %if.end, %if.then
  %23 = load ptr, ptr %retval, align 8
  ret ptr %23
}

; Function Attrs: mustprogress nounwind uwtable
define internal noundef ptr @_ZL19nodeListToNodeArrayRN4llvh11ms_demangle14ArenaAllocatorEP8NodeListm(ptr noundef nonnull align 8 dereferenceable(8) %Arena, ptr noundef %Head, i64 noundef %Count) #0 {
entry:
  %Arena.addr = alloca ptr, align 8
  %Head.addr = alloca ptr, align 8
  %Count.addr = alloca i64, align 8
  %N = alloca ptr, align 8
  %I = alloca i64, align 8
  store ptr %Arena, ptr %Arena.addr, align 8
  store ptr %Head, ptr %Head.addr, align 8
  store i64 %Count, ptr %Count.addr, align 8
  %0 = load ptr, ptr %Arena.addr, align 8
  %call = call noundef ptr @_ZN4llvh11ms_demangle14ArenaAllocator5allocINS0_13NodeArrayNodeEJEEEPT_DpOT0_(ptr noundef nonnull align 8 dereferenceable(8) %0)
  store ptr %call, ptr %N, align 8
  %1 = load i64, ptr %Count.addr, align 8
  %2 = load ptr, ptr %N, align 8
  %Count1 = getelementptr inbounds %"struct.llvh::ms_demangle::NodeArrayNode", ptr %2, i32 0, i32 2
  store i64 %1, ptr %Count1, align 8
  %3 = load ptr, ptr %Arena.addr, align 8
  %4 = load i64, ptr %Count.addr, align 8
  %call2 = call noundef ptr @_ZN4llvh11ms_demangle14ArenaAllocator10allocArrayIPNS0_4NodeEJEEEPT_m(ptr noundef nonnull align 8 dereferenceable(8) %3, i64 noundef %4)
  %5 = load ptr, ptr %N, align 8
  %Nodes = getelementptr inbounds %"struct.llvh::ms_demangle::NodeArrayNode", ptr %5, i32 0, i32 1
  store ptr %call2, ptr %Nodes, align 8
  store i64 0, ptr %I, align 8
  br label %for.cond

for.cond:                                         ; preds = %for.inc, %entry
  %6 = load i64, ptr %I, align 8
  %7 = load i64, ptr %Count.addr, align 8
  %cmp = icmp ult i64 %6, %7
  br i1 %cmp, label %for.body, label %for.end

for.body:                                         ; preds = %for.cond
  %8 = load ptr, ptr %Head.addr, align 8
  %N3 = getelementptr inbounds %struct.NodeList, ptr %8, i32 0, i32 0
  %9 = load ptr, ptr %N3, align 8
  %10 = load ptr, ptr %N, align 8
  %Nodes4 = getelementptr inbounds %"struct.llvh::ms_demangle::NodeArrayNode", ptr %10, i32 0, i32 1
  %11 = load ptr, ptr %Nodes4, align 8
  %12 = load i64, ptr %I, align 8
  %arrayidx = getelementptr inbounds ptr, ptr %11, i64 %12
  store ptr %9, ptr %arrayidx, align 8
  %13 = load ptr, ptr %Head.addr, align 8
  %Next = getelementptr inbounds %struct.NodeList, ptr %13, i32 0, i32 1
  %14 = load ptr, ptr %Next, align 8
  store ptr %14, ptr %Head.addr, align 8
  br label %for.inc

for.inc:                                          ; preds = %for.body
  %15 = load i64, ptr %I, align 8
  %inc = add i64 %15, 1
  store i64 %inc, ptr %I, align 8
  br label %for.cond, !llvm.loop !18

for.end:                                          ; preds = %for.cond
  %16 = load ptr, ptr %N, align 8
  ret ptr %16
}