; Function Attrs: mustprogress nounwind uwtable
define internal fastcc noundef ptr @_ZL19nodeListToNodeArrayRN4llvh11ms_demangle14ArenaAllocatorEP8NodeListm(ptr nocapture noundef nonnull align 8 dereferenceable(8) %Arena, ptr nocapture noundef readonly %Head, i64 noundef %Count) unnamed_addr #2 {
entry:
  %0 = load ptr, ptr %Arena, align 8
  %1 = load ptr, ptr %0, align 8
  %2 = ptrtoint ptr %1 to i64
  %Used.i = getelementptr inbounds i8, ptr %0, i64 8
  %3 = load i64, ptr %Used.i, align 8
  %add.i = add i64 %3, %2
  %sub.i = add i64 %add.i, 7
  %and.i = and i64 %sub.i, -8
  %sub4.i = add i64 %3, 32
  %add5.i = sub i64 %sub4.i, %add.i
  %add8.i = add i64 %add5.i, %and.i
  store i64 %add8.i, ptr %Used.i, align 8
  %4 = load ptr, ptr %Arena, align 8
  %Used10.i = getelementptr inbounds i8, ptr %4, i64 8
  %5 = load i64, ptr %Used10.i, align 8
  %Capacity.i = getelementptr inbounds i8, ptr %4, i64 16
  %6 = load i64, ptr %Capacity.i, align 8
  %cmp.i = icmp ult i64 %5, %6
  br i1 %cmp.i, label %if.then.i, label %if.end.i

if.then.i:                                        ; preds = %entry
  %7 = inttoptr i64 %and.i to ptr
  br label %_ZN4llvh11ms_demangle14ArenaAllocator5allocINS0_13NodeArrayNodeEJEEEPT_DpOT0_.exit

if.end.i:                                         ; preds = %entry
  %call.i.i = tail call noalias noundef nonnull dereferenceable(32) ptr @_Znwm(i64 noundef 32) #20
  %call2.i.i = tail call noalias noundef nonnull dereferenceable(4096) ptr @_Znam(i64 noundef 4096) #20
  store ptr %call2.i.i, ptr %call.i.i, align 8
  %Next.i.i = getelementptr inbounds i8, ptr %call.i.i, i64 24
  store ptr %4, ptr %Next.i.i, align 8
  %Capacity3.i.i = getelementptr inbounds i8, ptr %call.i.i, i64 16
  store i64 4096, ptr %Capacity3.i.i, align 8
  store ptr %call.i.i, ptr %Arena, align 8
  %Used.i.i = getelementptr inbounds i8, ptr %call.i.i, i64 8
  store i64 32, ptr %Used.i.i, align 8
  br label %_ZN4llvh11ms_demangle14ArenaAllocator5allocINS0_13NodeArrayNodeEJEEEPT_DpOT0_.exit

_ZN4llvh11ms_demangle14ArenaAllocator5allocINS0_13NodeArrayNodeEJEEEPT_DpOT0_.exit: ; preds = %if.then.i, %if.end.i
  %call2.i.sink7.i = phi ptr [ %call2.i.i, %if.end.i ], [ %7, %if.then.i ]
  %Kind.i.i4.i = getelementptr inbounds i8, ptr %call2.i.sink7.i, i64 8
  store i32 19, ptr %Kind.i.i4.i, align 8
  store ptr getelementptr inbounds ({ [5 x ptr] }, ptr @_ZTVN4llvh11ms_demangle13NodeArrayNodeE, i64 0, i32 0, i64 2), ptr %call2.i.sink7.i, align 8
  %Nodes.i5.i = getelementptr inbounds i8, ptr %call2.i.sink7.i, i64 16
  store i64 0, ptr %Nodes.i5.i, align 8
  %Count1 = getelementptr inbounds i8, ptr %call2.i.sink7.i, i64 24
  store i64 %Count, ptr %Count1, align 8
  %mul.i = shl i64 %Count, 3
  %8 = load ptr, ptr %Arena, align 8
  %9 = load ptr, ptr %8, align 8
  %10 = ptrtoint ptr %9 to i64
  %Used.i10 = getelementptr inbounds i8, ptr %8, i64 8
  %11 = load i64, ptr %Used.i10, align 8
  %add.i11 = add i64 %11, %10
  %sub.i12 = add i64 %add.i11, 7
  %and.i13 = and i64 %sub.i12, -8
  %sub4.i14 = add i64 %11, %mul.i
  %add5.i15 = sub i64 %sub4.i14, %add.i11
  %add8.i16 = add i64 %add5.i15, %and.i13
  store i64 %add8.i16, ptr %Used.i10, align 8
  %12 = load ptr, ptr %Arena, align 8
  %Used10.i17 = getelementptr inbounds i8, ptr %12, i64 8
  %13 = load i64, ptr %Used10.i17, align 8
  %Capacity.i18 = getelementptr inbounds i8, ptr %12, i64 16
  %14 = load i64, ptr %Capacity.i18, align 8
  %cmp.i19 = icmp ult i64 %13, %14
  br i1 %cmp.i19, label %if.then.i26, label %if.end.i20

if.then.i26:                                      ; preds = %_ZN4llvh11ms_demangle14ArenaAllocator5allocINS0_13NodeArrayNodeEJEEEPT_DpOT0_.exit
  %15 = inttoptr i64 %and.i13 to ptr
  %16 = icmp ugt i64 %Count, 2305843009213693951
  %17 = select i1 %16, i64 -1, i64 %mul.i
  tail call void @llvm.memset.p0.i64(ptr align 8 %15, i8 0, i64 %17, i1 false)
  br label %_ZN4llvh11ms_demangle14ArenaAllocator10allocArrayIPNS0_4NodeEJEEEPT_m.exit

if.end.i20:                                       ; preds = %_ZN4llvh11ms_demangle14ArenaAllocator5allocINS0_13NodeArrayNodeEJEEEPT_DpOT0_.exit
  %call.i.i21 = tail call noalias noundef nonnull dereferenceable(32) ptr @_Znwm(i64 noundef 32) #20
  %call2.i.i22 = tail call noalias noundef nonnull dereferenceable(4096) ptr @_Znam(i64 noundef 4096) #20
  store ptr %call2.i.i22, ptr %call.i.i21, align 8
  %Next.i.i23 = getelementptr inbounds i8, ptr %call.i.i21, i64 24
  store ptr %12, ptr %Next.i.i23, align 8
  %Capacity3.i.i24 = getelementptr inbounds i8, ptr %call.i.i21, i64 16
  store i64 4096, ptr %Capacity3.i.i24, align 8
  store ptr %call.i.i21, ptr %Arena, align 8
  %Used.i.i25 = getelementptr inbounds i8, ptr %call.i.i21, i64 8
  store i64 %mul.i, ptr %Used.i.i25, align 8
  %18 = icmp ugt i64 %Count, 2305843009213693951
  %19 = select i1 %18, i64 -1, i64 %mul.i
  tail call void @llvm.memset.p0.i64(ptr nonnull align 8 %call2.i.i22, i8 0, i64 %19, i1 false)
  br label %_ZN4llvh11ms_demangle14ArenaAllocator10allocArrayIPNS0_4NodeEJEEEPT_m.exit

_ZN4llvh11ms_demangle14ArenaAllocator10allocArrayIPNS0_4NodeEJEEEPT_m.exit: ; preds = %if.then.i26, %if.end.i20
  %retval.0.i = phi ptr [ %15, %if.then.i26 ], [ %call2.i.i22, %if.end.i20 ]
  store ptr %retval.0.i, ptr %Nodes.i5.i, align 8
  %cmp27.not = icmp eq i64 %Count, 0
  br i1 %cmp27.not, label %for.end, label %for.body

for.body:                                         ; preds = %_ZN4llvh11ms_demangle14ArenaAllocator10allocArrayIPNS0_4NodeEJEEEPT_m.exit, %for.body
  %I.029 = phi i64 [ %inc, %for.body ], [ 0, %_ZN4llvh11ms_demangle14ArenaAllocator10allocArrayIPNS0_4NodeEJEEEPT_m.exit ]
  %Head.addr.028 = phi ptr [ %22, %for.body ], [ %Head, %_ZN4llvh11ms_demangle14ArenaAllocator10allocArrayIPNS0_4NodeEJEEEPT_m.exit ]
  %20 = load ptr, ptr %Head.addr.028, align 8
  %21 = load ptr, ptr %Nodes.i5.i, align 8
  %arrayidx = getelementptr inbounds ptr, ptr %21, i64 %I.029
  store ptr %20, ptr %arrayidx, align 8
  %Next = getelementptr inbounds i8, ptr %Head.addr.028, i64 8
  %22 = load ptr, ptr %Next, align 8
  %inc = add nuw i64 %I.029, 1
  %exitcond.not = icmp eq i64 %inc, %Count
  br i1 %exitcond.not, label %for.end, label %for.body, !llvm.loop !22

for.end:                                          ; preds = %for.body, %_ZN4llvh11ms_demangle14ArenaAllocator10allocArrayIPNS0_4NodeEJEEEPT_m.exit
  ret ptr %call2.i.sink7.i
}